target datalayout = "e-m:e-p270:32:32-p271:32:32-p272:64:64-i64:64-i128:128-f80:128-n8:16:32:64-S128"
target triple = "x86_64-pc-linux-gnu"

%"class.std::basic_string_view" = type { i64, ptr }

; Function Attrs: noinline noreturn nounwind uwtable
define linkonce_odr hidden void @__clang_call_terminate(ptr noundef %0) #4 comdat {
  %2 = call ptr @__cxa_begin_catch(ptr %0) #11
  call void @_ZSt9terminatev() #13
  unreachable
}

; Function Attrs: mustprogress nounwind uwtable
define linkonce_odr noundef ptr @_ZNSt11char_traitsIcE4findEPKcmRS1_(ptr noundef %0, i64 noundef %1, ptr noundef nonnull align 1 dereferenceable(1) %2) #0 comdat align 2 {
  %4 = alloca ptr, align 8
  %5 = alloca ptr, align 8
  %6 = alloca i64, align 8
  %7 = alloca ptr, align 8
  store ptr %0, ptr %5, align 8, !tbaa !17
  store i64 %1, ptr %6, align 8, !tbaa !18
  store ptr %2, ptr %7, align 8, !tbaa !17
  %8 = load i64, ptr %6, align 8, !tbaa !18
  %9 = icmp eq i64 %8, 0
  br i1 %9, label %10, label %11

10:                                               ; preds = %3
  store ptr null, ptr %4, align 8
  br label %18

11:                                               ; preds = %3
  %12 = load ptr, ptr %5, align 8, !tbaa !17
  %13 = load ptr, ptr %7, align 8, !tbaa !17
  %14 = load i8, ptr %13, align 1, !tbaa !25
  %15 = sext i8 %14 to i32
  %16 = load i64, ptr %6, align 8, !tbaa !18
  %17 = call ptr @memchr(ptr noundef %12, i32 noundef %15, i64 noundef %16) #11
  store ptr %17, ptr %4, align 8
  br label %18

18:                                               ; preds = %11, %10
  %19 = load ptr, ptr %4, align 8
  ret ptr %19
}

; Function Attrs: mustprogress nounwind uwtable
define linkonce_odr noundef ptr @_ZNKSt17basic_string_viewIcSt11char_traitsIcEE4dataEv(ptr noundef nonnull align 8 dereferenceable(16) %0) #0 comdat align 2 {
  %2 = alloca ptr, align 8
  store ptr %0, ptr %2, align 8, !tbaa !23
  %3 = load ptr, ptr %2, align 8
  %4 = getelementptr inbounds nuw %"class.std::basic_string_view", ptr %3, i32 0, i32 1
  %5 = load ptr, ptr %4, align 8, !tbaa !28
  ret ptr %5
}

; Function Attrs: mustprogress nounwind uwtable
define linkonce_odr noundef i64 @_ZNKSt17basic_string_viewIcSt11char_traitsIcEE4findEcm(ptr noundef nonnull align 8 dereferenceable(16) %0, i8 noundef signext %1, i64 noundef %2) #0 comdat align 2 personality ptr @__gxx_personality_v0 {
  %4 = alloca ptr, align 8
  %5 = alloca i8, align 1
  %6 = alloca i64, align 8
  %7 = alloca i64, align 8
  %8 = alloca i64, align 8
  %9 = alloca ptr, align 8
  store ptr %0, ptr %4, align 8, !tbaa !23
  store i8 %1, ptr %5, align 1, !tbaa !25
  store i64 %2, ptr %6, align 8, !tbaa !18
  %10 = load ptr, ptr %4, align 8
  call void @llvm.lifetime.start.p0(i64 8, ptr %7) #11
  store i64 -1, ptr %7, align 8, !tbaa !18
  %11 = load i64, ptr %6, align 8, !tbaa !18
  %12 = getelementptr inbounds nuw %"class.std::basic_string_view", ptr %10, i32 0, i32 0
  %13 = load i64, ptr %12, align 8, !tbaa !26
  %14 = icmp ult i64 %11, %13
  br i1 %14, label %15, label %37

15:                                               ; preds = %3
  call void @llvm.lifetime.start.p0(i64 8, ptr %8) #11
  %16 = getelementptr inbounds nuw %"class.std::basic_string_view", ptr %10, i32 0, i32 0
  %17 = load i64, ptr %16, align 8, !tbaa !26
  %18 = load i64, ptr %6, align 8, !tbaa !18
  %19 = sub i64 %17, %18
  store i64 %19, ptr %8, align 8, !tbaa !18
  call void @llvm.lifetime.start.p0(i64 8, ptr %9) #11
  %20 = getelementptr inbounds nuw %"class.std::basic_string_view", ptr %10, i32 0, i32 1
  %21 = load ptr, ptr %20, align 8, !tbaa !28
  %22 = load i64, ptr %6, align 8, !tbaa !18
  %23 = getelementptr inbounds nuw i8, ptr %21, i64 %22
  %24 = load i64, ptr %8, align 8, !tbaa !18
  %25 = invoke noundef ptr @_ZNSt11char_traitsIcE4findEPKcmRS1_(ptr noundef %23, i64 noundef %24, ptr noundef nonnull align 1 dereferenceable(1) %5)
          to label %26 unwind label %39

26:                                               ; preds = %15
  store ptr %25, ptr %9, align 8, !tbaa !17
  %27 = load ptr, ptr %9, align 8, !tbaa !17
  %28 = icmp ne ptr %27, null
  br i1 %28, label %29, label %36

29:                                               ; preds = %26
  %30 = load ptr, ptr %9, align 8, !tbaa !17
  %31 = getelementptr inbounds nuw %"class.std::basic_string_view", ptr %10, i32 0, i32 1
  %32 = load ptr, ptr %31, align 8, !tbaa !28
  %33 = ptrtoint ptr %30 to i64
  %34 = ptrtoint ptr %32 to i64
  %35 = sub i64 %33, %34
  store i64 %35, ptr %7, align 8, !tbaa !18
  br label %36

36:                                               ; preds = %29, %26
  call void @llvm.lifetime.end.p0(i64 8, ptr %9) #11
  call void @llvm.lifetime.end.p0(i64 8, ptr %8) #11
  br label %37

37:                                               ; preds = %36, %3
  %38 = load i64, ptr %7, align 8, !tbaa !18
  call void @llvm.lifetime.end.p0(i64 8, ptr %7) #11
  ret i64 %38

39:                                               ; preds = %15
  %40 = landingpad { ptr, i32 }
          catch ptr null
  %41 = extractvalue { ptr, i32 } %40, 0
  call void @__clang_call_terminate(ptr %41) #13
  unreachable
}

; Function Attrs: mustprogress nounwind uwtable
define ptr @locale_getKeywordsStart_77(i64 %0, ptr %1) #0 {
  %3 = alloca ptr, align 8
  %4 = alloca %"class.std::basic_string_view", align 8
  %5 = alloca i64, align 8
  %6 = alloca i32, align 4
  %7 = getelementptr inbounds nuw { i64, ptr }, ptr %4, i32 0, i32 0
  store i64 %0, ptr %7, align 8
  %8 = getelementptr inbounds nuw { i64, ptr }, ptr %4, i32 0, i32 1
  store ptr %1, ptr %8, align 8
  call void @llvm.lifetime.start.p0(i64 8, ptr %5) #11
  %9 = call noundef i64 @_ZNKSt17basic_string_viewIcSt11char_traitsIcEE4findEcm(ptr noundef nonnull align 8 dereferenceable(16) %4, i8 noundef signext 64, i64 noundef 0) #11
  store i64 %9, ptr %5, align 8, !tbaa !18
  %10 = load i64, ptr %5, align 8, !tbaa !18
  %11 = icmp ne i64 %10, -1
  br i1 %11, label %12, label %16

12:                                               ; preds = %2
  %13 = call noundef ptr @_ZNKSt17basic_string_viewIcSt11char_traitsIcEE4dataEv(ptr noundef nonnull align 8 dereferenceable(16) %4) #11
  %14 = load i64, ptr %5, align 8, !tbaa !18
  %15 = getelementptr inbounds nuw i8, ptr %13, i64 %14
  store ptr %15, ptr %3, align 8
  store i32 1, ptr %6, align 4
  br label %17

16:                                               ; preds = %2
  store i32 0, ptr %6, align 4
  br label %17

17:                                               ; preds = %16, %12
  call void @llvm.lifetime.end.p0(i64 8, ptr %5) #11
  %18 = load i32, ptr %6, align 4
  switch i32 %18, label %22 [
    i32 0, label %19
    i32 1, label %20
  ]

19:                                               ; preds = %17
  store ptr null, ptr %3, align 8
  br label %20

20:                                               ; preds = %19, %17
  %21 = load ptr, ptr %3, align 8
  ret ptr %21

22:                                               ; preds = %17
  unreachable
}