; Function Attrs: mustprogress nofree nounwind willreturn memory(argmem: read) uwtable
define ptr @locale_getKeywordsStart_77(i64 %0, ptr %1) local_unnamed_addr #10 personality ptr @__gxx_personality_v0 {
  %.not12 = icmp eq i64 %0, 0
  br i1 %.not12, label %_ZNKSt17basic_string_viewIcSt11char_traitsIcEE4findEcm.exit.thread, label %_ZNSt11char_traitsIcE4findEPKcmRS1_.exit.i

_ZNSt11char_traitsIcE4findEPKcmRS1_.exit.i:       ; preds = %2
  %3 = tail call ptr @memchr(ptr noundef %1, i32 noundef 64, i64 noundef %0) #20
  %.not.i = icmp ne ptr %3, null
  %4 = ptrtoint ptr %3 to i64
  %5 = ptrtoint ptr %1 to i64
  %6 = sub i64 %4, %5
  %.not = icmp ne i64 %6, -1
  %or.cond = select i1 %.not.i, i1 %.not, i1 false
  %7 = getelementptr inbounds nuw i8, ptr %1, i64 %6
  %spec.select = select i1 %or.cond, ptr %7, ptr null
  br label %_ZNKSt17basic_string_viewIcSt11char_traitsIcEE4findEcm.exit.thread

_ZNKSt17basic_string_viewIcSt11char_traitsIcEE4findEcm.exit.thread: ; preds = %_ZNSt11char_traitsIcE4findEPKcmRS1_.exit.i, %2
  %8 = phi ptr [ null, %2 ], [ %spec.select, %_ZNSt11char_traitsIcE4findEPKcmRS1_.exit.i ]
  ret ptr %8
}